#include <math.h>
#include <stdio.h>
#include <stdlib.h>
#include <string.h>


int main(int argc, char* argv[])
{
    char a[110],b[110];
	while(scanf("%s",&a)==1)
	{
		strcpy(b,a);
		int len=strlen(a);
		int i,t,s,q=1;
		while(q)
		{
			q=0;
			t=-1;s=-1;
			for(i=0;i<len;i++)
			{
				if(a[i]==40)
					t=i;
				else if(a[i]==41)
				{
					if(t>=0)
					{
						a[t]=48;
						a[i]=48;
						q=1;
						break;

					}
					    
				}
			}


		}
		for(i=0;i<len;i++)
			printf("%c",b[i]);
		printf("\n");
		for(i=0;i<len;i++)
		{
			if(a[i]=='(')
				printf("$");
			else if(a[i]==')')
				printf("?");
			else 
				printf(" ");
		}
			printf("\n");
	
		
	}
	return 0;
}