; ModuleID = '17/1276.c'
source_filename = "17/1276.c"
target datalayout = "e-m:e-p270:32:32-p271:32:32-p272:64:64-i64:64-f80:128-n8:16:32:64-S128"
target triple = "x86_64-pc-linux-gnu"

@.str = private unnamed_addr constant [3 x i8] c"%s\00", align 1
@.str.1 = private unnamed_addr constant [3 x i8] c"%c\00", align 1
@.str.2 = private unnamed_addr constant [2 x i8] c"\0A\00", align 1
@.str.3 = private unnamed_addr constant [2 x i8] c"$\00", align 1
@.str.4 = private unnamed_addr constant [2 x i8] c"?\00", align 1
@.str.5 = private unnamed_addr constant [2 x i8] c" \00", align 1

; Function Attrs: noinline nounwind uwtable
define dso_local i32 @main(i32 %0, i8** %1) #0 {
  %3 = alloca i32, align 4
  %4 = alloca i32, align 4
  %5 = alloca i8**, align 8
  %6 = alloca [110 x i8], align 16
  %7 = alloca [110 x i8], align 16
  %8 = alloca i32, align 4
  %9 = alloca i32, align 4
  %10 = alloca i32, align 4
  %11 = alloca i32, align 4
  %12 = alloca i32, align 4
  store i32 0, i32* %3, align 4
  store i32 %0, i32* %4, align 4
  store i8** %1, i8*** %5, align 8
  br label %13

13:                                               ; preds = %110, %2
  %14 = call i32 (i8*, ...) @__isoc99_scanf(i8* getelementptr inbounds ([3 x i8], [3 x i8]* @.str, i64 0, i64 0), [110 x i8]* %6)
  %15 = icmp eq i32 %14, 1
  br i1 %15, label %16, label %112

16:                                               ; preds = %13
  %17 = getelementptr inbounds [110 x i8], [110 x i8]* %7, i64 0, i64 0
  %18 = getelementptr inbounds [110 x i8], [110 x i8]* %6, i64 0, i64 0
  %19 = call i8* @strcpy(i8* %17, i8* %18) #4
  %20 = getelementptr inbounds [110 x i8], [110 x i8]* %6, i64 0, i64 0
  %21 = call i64 @strlen(i8* %20) #5
  %22 = trunc i64 %21 to i32
  store i32 %22, i32* %8, align 4
  store i32 1, i32* %12, align 4
  br label %23

23:                                               ; preds = %63, %16
  %24 = load i32, i32* %12, align 4
  %25 = icmp ne i32 %24, 0
  br i1 %25, label %26, label %64

26:                                               ; preds = %23
  store i32 0, i32* %12, align 4
  store i32 -1, i32* %10, align 4
  store i32 -1, i32* %11, align 4
  store i32 0, i32* %9, align 4
  br label %27

27:                                               ; preds = %60, %26
  %28 = load i32, i32* %9, align 4
  %29 = load i32, i32* %8, align 4
  %30 = icmp slt i32 %28, %29
  br i1 %30, label %31, label %63

31:                                               ; preds = %27
  %32 = load i32, i32* %9, align 4
  %33 = sext i32 %32 to i64
  %34 = getelementptr inbounds [110 x i8], [110 x i8]* %6, i64 0, i64 %33
  %35 = load i8, i8* %34, align 1
  %36 = sext i8 %35 to i32
  %37 = icmp eq i32 %36, 40
  br i1 %37, label %38, label %40

38:                                               ; preds = %31
  %39 = load i32, i32* %9, align 4
  store i32 %39, i32* %10, align 4
  br label %59

40:                                               ; preds = %31
  %41 = load i32, i32* %9, align 4
  %42 = sext i32 %41 to i64
  %43 = getelementptr inbounds [110 x i8], [110 x i8]* %6, i64 0, i64 %42
  %44 = load i8, i8* %43, align 1
  %45 = sext i8 %44 to i32
  %46 = icmp eq i32 %45, 41
  br i1 %46, label %47, label %58

47:                                               ; preds = %40
  %48 = load i32, i32* %10, align 4
  %49 = icmp sge i32 %48, 0
  br i1 %49, label %50, label %57

50:                                               ; preds = %47
  %51 = load i32, i32* %10, align 4
  %52 = sext i32 %51 to i64
  %53 = getelementptr inbounds [110 x i8], [110 x i8]* %6, i64 0, i64 %52
  store i8 48, i8* %53, align 1
  %54 = load i32, i32* %9, align 4
  %55 = sext i32 %54 to i64
  %56 = getelementptr inbounds [110 x i8], [110 x i8]* %6, i64 0, i64 %55
  store i8 48, i8* %56, align 1
  store i32 1, i32* %12, align 4
  br label %63

57:                                               ; preds = %47
  br label %58

58:                                               ; preds = %57, %40
  br label %59

59:                                               ; preds = %58, %38
  br label %60

60:                                               ; preds = %59
  %61 = load i32, i32* %9, align 4
  %62 = add nsw i32 %61, 1
  store i32 %62, i32* %9, align 4
  br label %27

63:                                               ; preds = %50, %27
  br label %23

64:                                               ; preds = %23
  store i32 0, i32* %9, align 4
  br label %65

65:                                               ; preds = %76, %64
  %66 = load i32, i32* %9, align 4
  %67 = load i32, i32* %8, align 4
  %68 = icmp slt i32 %66, %67
  br i1 %68, label %69, label %79

69:                                               ; preds = %65
  %70 = load i32, i32* %9, align 4
  %71 = sext i32 %70 to i64
  %72 = getelementptr inbounds [110 x i8], [110 x i8]* %7, i64 0, i64 %71
  %73 = load i8, i8* %72, align 1
  %74 = sext i8 %73 to i32
  %75 = call i32 (i8*, ...) @printf(i8* getelementptr inbounds ([3 x i8], [3 x i8]* @.str.1, i64 0, i64 0), i32 %74)
  br label %76

76:                                               ; preds = %69
  %77 = load i32, i32* %9, align 4
  %78 = add nsw i32 %77, 1
  store i32 %78, i32* %9, align 4
  br label %65

79:                                               ; preds = %65
  %80 = call i32 (i8*, ...) @printf(i8* getelementptr inbounds ([2 x i8], [2 x i8]* @.str.2, i64 0, i64 0))
  store i32 0, i32* %9, align 4
  br label %81

81:                                               ; preds = %107, %79
  %82 = load i32, i32* %9, align 4
  %83 = load i32, i32* %8, align 4
  %84 = icmp slt i32 %82, %83
  br i1 %84, label %85, label %110

85:                                               ; preds = %81
  %86 = load i32, i32* %9, align 4
  %87 = sext i32 %86 to i64
  %88 = getelementptr inbounds [110 x i8], [110 x i8]* %6, i64 0, i64 %87
  %89 = load i8, i8* %88, align 1
  %90 = sext i8 %89 to i32
  %91 = icmp eq i32 %90, 40
  br i1 %91, label %92, label %94

92:                                               ; preds = %85
  %93 = call i32 (i8*, ...) @printf(i8* getelementptr inbounds ([2 x i8], [2 x i8]* @.str.3, i64 0, i64 0))
  br label %106

94:                                               ; preds = %85
  %95 = load i32, i32* %9, align 4
  %96 = sext i32 %95 to i64
  %97 = getelementptr inbounds [110 x i8], [110 x i8]* %6, i64 0, i64 %96
  %98 = load i8, i8* %97, align 1
  %99 = sext i8 %98 to i32
  %100 = icmp eq i32 %99, 41
  br i1 %100, label %101, label %103

101:                                              ; preds = %94
  %102 = call i32 (i8*, ...) @printf(i8* getelementptr inbounds ([2 x i8], [2 x i8]* @.str.4, i64 0, i64 0))
  br label %105

103:                                              ; preds = %94
  %104 = call i32 (i8*, ...) @printf(i8* getelementptr inbounds ([2 x i8], [2 x i8]* @.str.5, i64 0, i64 0))
  br label %105

105:                                              ; preds = %103, %101
  br label %106

106:                                              ; preds = %105, %92
  br label %107

107:                                              ; preds = %106
  %108 = load i32, i32* %9, align 4
  %109 = add nsw i32 %108, 1
  store i32 %109, i32* %9, align 4
  br label %81

110:                                              ; preds = %81
  %111 = call i32 (i8*, ...) @printf(i8* getelementptr inbounds ([2 x i8], [2 x i8]* @.str.2, i64 0, i64 0))
  br label %13

112:                                              ; preds = %13
  ret i32 0
}

declare dso_local i32 @__isoc99_scanf(i8*, ...) #1

; Function Attrs: nounwind
declare dso_local i8* @strcpy(i8*, i8*) #2

; Function Attrs: nounwind readonly
declare dso_local i64 @strlen(i8*) #3

declare dso_local i32 @printf(i8*, ...) #1


!llvm.module.flags = !{!0}
!llvm.ident = !{!1}

!0 = !{i32 1, !"wchar_size", i32 4}
!1 = !{!"clang version 10.0.0-4ubuntu1 "}
